; Function Attrs: mustprogress nofree norecurse nosync nounwind willreturn memory(argmem: write) uwtable
define dso_local range(i32 0, 2) i32 @geohashDecodeWGS84(i64 %0, i8 %1, ptr noundef writeonly captures(address_is_null) %2) local_unnamed_addr #0 {
  %4 = icmp eq i64 %0, 0
  %5 = icmp eq i8 %1, 0
  %or.cond.not45.i = select i1 %4, i1 %5, i1 false
  %6 = icmp eq ptr %2, null
  %or.cond4.i = or i1 %or.cond.not45.i, %6
  br i1 %or.cond4.i, label %geohashDecode.exit, label %7

7:                                                ; preds = %3
  store i64 %0, ptr %2, align 8, !tbaa !15
  %.sroa.4.0..sroa_idx.i = getelementptr inbounds nuw i8, ptr %2, i64 8
  store i8 %1, ptr %.sroa.4.0..sroa_idx.i, align 8, !tbaa !16
  %8 = lshr i64 %0, 1
  %9 = and i64 %0, 6148914691236517205
  %10 = and i64 %8, 4919131752989213764
  %11 = lshr i64 %9, 1
  %12 = or disjoint i64 %11, %9
  %13 = and i64 %12, 3689348814741910323
  %14 = and i64 %0, 2459565876494606882
  %15 = or disjoint i64 %10, %14
  %16 = lshr exact i64 %15, 1
  %17 = lshr i64 %13, 2
  %18 = or disjoint i64 %17, %13
  %19 = and i64 %18, 1085102592571150095
  %20 = lshr i64 %15, 3
  %21 = or disjoint i64 %16, %20
  %22 = and i64 %21, 1085102592571150095
  %23 = lshr i64 %19, 4
  %24 = or disjoint i64 %23, %19
  %25 = and i64 %24, 71777214294589695
  %26 = lshr i64 %22, 4
  %27 = or disjoint i64 %26, %22
  %28 = and i64 %27, 71777214294589695
  %29 = lshr i64 %25, 8
  %30 = or disjoint i64 %29, %25
  %31 = lshr i64 %28, 8
  %32 = or disjoint i64 %31, %28
  %33 = lshr i64 %30, 16
  %34 = and i64 %33, 4294901760
  %.masked.i.i = and i64 %30, 65535
  %35 = or disjoint i64 %34, %.masked.i.i
  %36 = lshr i64 %32, 16
  %37 = and i64 %36, 4294901760
  %.masked28.i.i = and i64 %32, 65535
  %38 = or disjoint i64 %37, %.masked28.i.i
  %39 = trunc nuw i64 %35 to i32
  %40 = trunc nuw i64 %38 to i32
  %41 = uitofp i32 %39 to double
  %42 = zext nneg i8 %1 to i64
  %43 = shl nuw i64 1, %42
  %44 = uitofp i64 %43 to double
  %45 = fdiv double %41, %44
  %46 = tail call double @llvm.fmuladd.f64(double %45, double 0x40654345B1A57F00, double 0xC0554345B1A57F00)
  %47 = getelementptr inbounds nuw i8, ptr %2, i64 32
  store double %46, ptr %47, align 8, !tbaa !17
  %48 = add i32 %39, 1
  %49 = uitofp i32 %48 to double
  %50 = fdiv double %49, %44
  %51 = tail call double @llvm.fmuladd.f64(double %50, double 0x40654345B1A57F00, double 0xC0554345B1A57F00)
  %52 = getelementptr inbounds nuw i8, ptr %2, i64 40
  store double %51, ptr %52, align 8, !tbaa !19
  %53 = uitofp i32 %40 to double
  %54 = fdiv double %53, %44
  %55 = tail call double @llvm.fmuladd.f64(double %54, double 3.600000e+02, double -1.800000e+02)
  %56 = getelementptr inbounds nuw i8, ptr %2, i64 16
  store double %55, ptr %56, align 8, !tbaa !20
  %57 = add i32 %40, 1
  %58 = uitofp i32 %57 to double
  %59 = fdiv double %58, %44
  %60 = tail call double @llvm.fmuladd.f64(double %59, double 3.600000e+02, double -1.800000e+02)
  %61 = getelementptr inbounds nuw i8, ptr %2, i64 24
  store double %60, ptr %61, align 8, !tbaa !21
  br label %geohashDecode.exit

geohashDecode.exit:                               ; preds = %3, %7
  %.0.i = phi i32 [ 1, %7 ], [ 0, %3 ]
  ret i32 %.0.i
}